target datalayout = "e-m:e-p270:32:32-p271:32:32-p272:64:64-i64:64-i128:128-f80:128-n8:16:32:64-S128"
target triple = "x86_64-pc-linux-gnu"

%"struct.faiss::IndexNNDescent" = type { %"struct.faiss::Index.base", %"struct.faiss::NNDescent", i8, ptr }
%"struct.faiss::Index.base" = type <{ ptr, i32, [4 x i8], i64, i8, i8, [2 x i8], i32, float }>
%"struct.faiss::NNDescent" = type { i8, i32, i32, i32, i32, i32, i32, i32, i32, i32, %"class.std::vector", %"class.std::vector.0" }
%"class.std::vector" = type { %"struct.std::_Vector_base" }
%"struct.std::_Vector_base" = type { %"struct.std::_Vector_base<faiss::nndescent::Nhood, std::allocator<faiss::nndescent::Nhood>>::_Vector_impl" }
%"struct.std::_Vector_base<faiss::nndescent::Nhood, std::allocator<faiss::nndescent::Nhood>>::_Vector_impl" = type { %"struct.std::_Vector_base<faiss::nndescent::Nhood, std::allocator<faiss::nndescent::Nhood>>::_Vector_impl_data" }
%"struct.std::_Vector_base<faiss::nndescent::Nhood, std::allocator<faiss::nndescent::Nhood>>::_Vector_impl_data" = type { ptr, ptr, ptr }
%"class.std::vector.0" = type { %"struct.std::_Vector_base.1" }
%"struct.std::_Vector_base.1" = type { %"struct.std::_Vector_base<int, std::allocator<int>>::_Vector_impl" }
%"struct.std::_Vector_base<int, std::allocator<int>>::_Vector_impl" = type { %"struct.std::_Vector_base<int, std::allocator<int>>::_Vector_impl_data" }
%"struct.std::_Vector_base<int, std::allocator<int>>::_Vector_impl_data" = type { ptr, ptr, ptr }

; Function Attrs: mustprogress uwtable
define void @_ZNK5faiss14IndexNNDescent11reconstructElPf(ptr noundef nonnull align 8 dereferenceable(144) %0, i64 noundef %1, ptr noundef %2) unnamed_addr #1 align 2 {
  %4 = alloca ptr, align 8
  %5 = alloca i64, align 8
  %6 = alloca ptr, align 8
  store ptr %0, ptr %4, align 8
  store i64 %1, ptr %5, align 8
  store ptr %2, ptr %6, align 8
  %7 = load ptr, ptr %4, align 8
  %8 = getelementptr inbounds %"struct.faiss::IndexNNDescent", ptr %7, i32 0, i32 3
  %9 = load ptr, ptr %8, align 8
  %10 = load i64, ptr %5, align 8
  %11 = load ptr, ptr %6, align 8
  %12 = load ptr, ptr %9, align 8
  %13 = getelementptr inbounds ptr, ptr %12, i64 10
  %14 = load ptr, ptr %13, align 8
  call void %14(ptr noundef nonnull align 8 dereferenceable(36) %9, i64 noundef %10, ptr noundef %11)
  ret void
}